target datalayout = "e-m:e-p270:32:32-p271:32:32-p272:64:64-i64:64-i128:128-f80:128-n8:16:32:64-S128"
target triple = "x86_64-unknown-linux-gnu"

%"class.grpc_core::TraceFlag" = type <{ ptr, ptr, %"struct.std::atomic", [7 x i8] }>
%"struct.std::atomic" = type { %"struct.std::__atomic_base" }
%"struct.std::__atomic_base" = type { i8 }
%"class.grpc_core::ConnectedSubchannel" = type { %"class.grpc_core::RefCounted", ptr, %"class.grpc_core::ChannelArgs", %"class.grpc_core::RefCountedPtr" }
%"class.grpc_core::RefCounted" = type { %"class.grpc_core::PolymorphicRefCount", %"class.grpc_core::RefCount" }
%"class.grpc_core::PolymorphicRefCount" = type { ptr }
%"class.grpc_core::RefCount" = type { %"struct.std::atomic.0" }
%"struct.std::atomic.0" = type { %"struct.std::__atomic_base.1" }
%"struct.std::__atomic_base.1" = type { i64 }
%"class.grpc_core::ChannelArgs" = type { %"class.grpc_core::AVL" }
%"class.grpc_core::AVL" = type { %"class.grpc_core::RefCountedPtr.2" }
%"class.grpc_core::RefCountedPtr.2" = type { ptr }
%"class.grpc_core::RefCountedPtr" = type { ptr }
%struct.grpc_closure = type { %union.anon, ptr, ptr, %union.anon.3 }
%union.anon = type { ptr }
%union.anon.3 = type { i64 }
%"class.absl::lts_20230802::Status" = type { i64 }
%struct.grpc_handler_private_op_data = type { ptr, %struct.grpc_closure }
%struct.grpc_channel_filter = type { ptr, ptr, ptr, ptr, i64, ptr, ptr, ptr, i64, ptr, ptr, ptr, ptr, ptr }
%"class.grpc_core::RefCountedPtr.17" = type { ptr }
%"class.grpc_core::Timestamp" = type { i64 }
%"class.grpc_core::SubchannelCall" = type { %"class.grpc_core::RefCountedPtr.17", ptr, %struct.grpc_closure, ptr, ptr, %"class.grpc_core::Timestamp" }
%struct.grpc_call_element = type { ptr, ptr, ptr }
%struct.grpc_transport_stream_op_batch = type { ptr, ptr, i8, %struct.grpc_handler_private_op_data }
%struct.grpc_transport_stream_op_batch_payload = type { %struct.anon.34, %struct.anon.35, %struct.anon.36, %struct.anon.37, %struct.anon.38, %struct.anon.39, %struct.anon.40, ptr }
%struct.anon.34 = type { ptr }
%struct.anon.35 = type { ptr, ptr }
%struct.anon.36 = type <{ ptr, i32, i8, [3 x i8] }>
%struct.anon.37 = type { ptr, ptr, ptr }
%struct.anon.38 = type { ptr, ptr, ptr, ptr }
%struct.anon.39 = type { ptr, ptr, ptr }
%struct.anon.40 = type <{ %"class.absl::lts_20230802::Status", i8, [7 x i8] }>

@.str.3 = private unnamed_addr constant [137 x i8] c"generated/home/dtcxzyw/WorkSpace/Projects/compilers/llvm-opt-benchmark/bench/grpc/grpc/src/core/ext/filters/client_channel/subchannel.cc\00", align 1
@grpc_trace_channel = external global %"class.grpc_core::TraceFlag", align 8
@.str.8 = private unnamed_addr constant [35 x i8] c"recv_trailing_metadata_ == nullptr\00", align 1

; Function Attrs: noreturn nounwind uwtable
define linkonce_odr hidden void @__clang_call_terminate(ptr noundef %0) #6 comdat {
  %2 = call ptr @__cxa_begin_catch(ptr %0) #3
  call void @_ZSt9terminatev() #18
  unreachable
}

; Function Attrs: mustprogress nounwind uwtable
define linkonce_odr noundef i32 @_ZStanSt12memory_orderSt23__memory_order_modifier(i32 noundef %__m, i32 noundef %__mod) #5 comdat {
entry:
  %__m.addr = alloca i32, align 4
  %__mod.addr = alloca i32, align 4
  store i32 %__m, ptr %__m.addr, align 4
  store i32 %__mod, ptr %__mod.addr, align 4
  %0 = load i32, ptr %__m.addr, align 4
  %1 = load i32, ptr %__mod.addr, align 4
  %and = and i32 %0, %1
  ret i32 %and
}

; Function Attrs: mustprogress nounwind uwtable
define linkonce_odr noundef ptr @_ZNK9grpc_core13RefCountedPtrINS_8channelz14SubchannelNodeEE3getEv(ptr noundef nonnull align 8 dereferenceable(8) %this) #5 comdat align 2 {
entry:
  %this.addr = alloca ptr, align 8
  store ptr %this, ptr %this.addr, align 8
  %this1 = load ptr, ptr %this.addr, align 8
  %value_ = getelementptr inbounds %"class.grpc_core::RefCountedPtr", ptr %this1, i32 0, i32 0
  %0 = load ptr, ptr %value_, align 8
  ret ptr %0
}

; Function Attrs: mustprogress nounwind uwtable
define linkonce_odr noundef zeroext i1 @_ZNKSt6atomicIbE4loadESt12memory_order(ptr noundef nonnull align 1 dereferenceable(1) %this, i32 noundef %__m) #5 comdat align 2 personality ptr @__gxx_personality_v0 {
entry:
  %this.addr.i = alloca ptr, align 8
  %__m.addr.i = alloca i32, align 4
  %__b.i = alloca i32, align 4
  %atomic-temp.i = alloca i8, align 1
  %this.addr = alloca ptr, align 8
  %__m.addr = alloca i32, align 4
  store ptr %this, ptr %this.addr, align 8
  store i32 %__m, ptr %__m.addr, align 4
  %this1 = load ptr, ptr %this.addr, align 8
  %_M_base = getelementptr inbounds %"struct.std::atomic", ptr %this1, i32 0, i32 0
  %0 = load i32, ptr %__m.addr, align 4
  store ptr %_M_base, ptr %this.addr.i, align 8
  store i32 %0, ptr %__m.addr.i, align 4
  %this1.i = load ptr, ptr %this.addr.i, align 8
  %1 = load i32, ptr %__m.addr.i, align 4
  %call.i = invoke noundef i32 @_ZStanSt12memory_orderSt23__memory_order_modifier(i32 noundef %1, i32 noundef 65535)
          to label %invoke.cont.i unwind label %terminate.lpad.i

invoke.cont.i:                                    ; preds = %entry
  store i32 %call.i, ptr %__b.i, align 4
  %2 = load i32, ptr %__m.addr.i, align 4
  switch i32 %2, label %monotonic.i [
    i32 1, label %acquire.i
    i32 2, label %acquire.i
    i32 5, label %seqcst.i
  ]

monotonic.i:                                      ; preds = %invoke.cont.i
  %3 = load atomic i8, ptr %this1.i monotonic, align 1
  store i8 %3, ptr %atomic-temp.i, align 1
  br label %_ZNKSt13__atomic_baseIbE4loadESt12memory_order.exit

acquire.i:                                        ; preds = %invoke.cont.i, %invoke.cont.i
  %4 = load atomic i8, ptr %this1.i acquire, align 1
  store i8 %4, ptr %atomic-temp.i, align 1
  br label %_ZNKSt13__atomic_baseIbE4loadESt12memory_order.exit

seqcst.i:                                         ; preds = %invoke.cont.i
  %5 = load atomic i8, ptr %this1.i seq_cst, align 1
  store i8 %5, ptr %atomic-temp.i, align 1
  br label %_ZNKSt13__atomic_baseIbE4loadESt12memory_order.exit

terminate.lpad.i:                                 ; preds = %entry
  %6 = landingpad { ptr, i32 }
          catch ptr null
  %7 = extractvalue { ptr, i32 } %6, 0
  call void @__clang_call_terminate(ptr %7) #18
  unreachable

_ZNKSt13__atomic_baseIbE4loadESt12memory_order.exit: ; preds = %seqcst.i, %acquire.i, %monotonic.i
  %8 = load i8, ptr %atomic-temp.i, align 1
  %tobool.i = trunc i8 %8 to i1
  ret i1 %tobool.i
}

; Function Attrs: mustprogress nounwind uwtable
define linkonce_odr noundef ptr @_Z17grpc_closure_initP12grpc_closurePFvPvN4absl12lts_202308026StatusEES1_(ptr noundef %closure, ptr noundef %cb, ptr noundef %cb_arg) #5 comdat {
entry:
  %closure.addr = alloca ptr, align 8
  %cb.addr = alloca ptr, align 8
  %cb_arg.addr = alloca ptr, align 8
  store ptr %closure, ptr %closure.addr, align 8
  store ptr %cb, ptr %cb.addr, align 8
  store ptr %cb_arg, ptr %cb_arg.addr, align 8
  %0 = load ptr, ptr %cb.addr, align 8
  %1 = load ptr, ptr %closure.addr, align 8
  %cb1 = getelementptr inbounds %struct.grpc_closure, ptr %1, i32 0, i32 1
  store ptr %0, ptr %cb1, align 8
  %2 = load ptr, ptr %cb_arg.addr, align 8
  %3 = load ptr, ptr %closure.addr, align 8
  %cb_arg2 = getelementptr inbounds %struct.grpc_closure, ptr %3, i32 0, i32 2
  store ptr %2, ptr %cb_arg2, align 8
  %4 = load ptr, ptr %closure.addr, align 8
  %error_data = getelementptr inbounds %struct.grpc_closure, ptr %4, i32 0, i32 3
  store i64 0, ptr %error_data, align 8
  %5 = load ptr, ptr %closure.addr, align 8
  ret ptr %5
}

; Function Attrs: mustprogress uwtable
define linkonce_odr noundef ptr @_ZNK9grpc_core19ConnectedSubchannel19channelz_subchannelEv(ptr noundef nonnull align 8 dereferenceable(40) %this) #4 comdat align 2 {
entry:
  %this.addr = alloca ptr, align 8
  store ptr %this, ptr %this.addr, align 8
  %this1 = load ptr, ptr %this.addr, align 8
  %channelz_subchannel_ = getelementptr inbounds %"class.grpc_core::ConnectedSubchannel", ptr %this1, i32 0, i32 3
  %call = call noundef ptr @_ZNK9grpc_core13RefCountedPtrINS_8channelz14SubchannelNodeEE3getEv(ptr noundef nonnull align 8 dereferenceable(8) %channelz_subchannel_)
  ret ptr %call
}

; Function Attrs: mustprogress nounwind uwtable
define linkonce_odr noundef ptr @_ZNK9grpc_core13RefCountedPtrINS_19ConnectedSubchannelEEptEv(ptr noundef nonnull align 8 dereferenceable(8) %this) #5 comdat align 2 {
entry:
  %this.addr = alloca ptr, align 8
  store ptr %this, ptr %this.addr, align 8
  %this1 = load ptr, ptr %this.addr, align 8
  %value_ = getelementptr inbounds %"class.grpc_core::RefCountedPtr.17", ptr %this1, i32 0, i32 0
  %0 = load ptr, ptr %value_, align 8
  ret ptr %0
}

; Function Attrs: mustprogress nounwind uwtable
define linkonce_odr noundef zeroext i1 @_ZN9grpc_core9TraceFlag7enabledEv(ptr noundef nonnull align 8 dereferenceable(17) %this) #5 comdat align 2 {
entry:
  %this.addr = alloca ptr, align 8
  store ptr %this, ptr %this.addr, align 8
  %this1 = load ptr, ptr %this.addr, align 8
  %value_ = getelementptr inbounds %"class.grpc_core::TraceFlag", ptr %this1, i32 0, i32 2
  %call = call noundef zeroext i1 @_ZNKSt6atomicIbE4loadESt12memory_order(ptr noundef nonnull align 1 dereferenceable(1) %value_, i32 noundef 0) #3
  ret i1 %call
}

; Function Attrs: mustprogress uwtable
define void @_ZN9grpc_core14SubchannelCall34MaybeInterceptRecvTrailingMetadataEP30grpc_transport_stream_op_batch(ptr noundef nonnull align 8 dereferenceable(72) %this, ptr noundef %batch) #4 align 2 {
entry:
  %this.addr = alloca ptr, align 8
  %batch.addr = alloca ptr, align 8
  store ptr %this, ptr %this.addr, align 8
  store ptr %batch, ptr %batch.addr, align 8
  %this1 = load ptr, ptr %this.addr, align 8
  %0 = load ptr, ptr %batch.addr, align 8
  %recv_trailing_metadata = getelementptr inbounds %struct.grpc_transport_stream_op_batch, ptr %0, i32 0, i32 2
  %bf.load = load i8, ptr %recv_trailing_metadata, align 8
  %bf.lshr = lshr i8 %bf.load, 5
  %bf.clear = and i8 %bf.lshr, 1
  %bf.cast = trunc i8 %bf.clear to i1
  br i1 %bf.cast, label %if.end, label %if.then

if.then:                                          ; preds = %entry
  br label %return

if.end:                                           ; preds = %entry
  %connected_subchannel_ = getelementptr inbounds %"class.grpc_core::SubchannelCall", ptr %this1, i32 0, i32 0
  %call = call noundef ptr @_ZNK9grpc_core13RefCountedPtrINS_19ConnectedSubchannelEEptEv(ptr noundef nonnull align 8 dereferenceable(8) %connected_subchannel_)
  %call2 = call noundef ptr @_ZNK9grpc_core19ConnectedSubchannel19channelz_subchannelEv(ptr noundef nonnull align 8 dereferenceable(40) %call)
  %cmp = icmp eq ptr %call2, null
  br i1 %cmp, label %if.then3, label %if.end4

if.then3:                                         ; preds = %if.end
  br label %return

if.end4:                                          ; preds = %if.end
  %recv_trailing_metadata_ready_ = getelementptr inbounds %"class.grpc_core::SubchannelCall", ptr %this1, i32 0, i32 2
  %call5 = call noundef ptr @_Z17grpc_closure_initP12grpc_closurePFvPvN4absl12lts_202308026StatusEES1_(ptr noundef %recv_trailing_metadata_ready_, ptr noundef @_ZN9grpc_core14SubchannelCall25RecvTrailingMetadataReadyEPvN4absl12lts_202308026StatusE, ptr noundef %this1)
  br label %do.body

do.body:                                          ; preds = %if.end4
  %recv_trailing_metadata_ = getelementptr inbounds %"class.grpc_core::SubchannelCall", ptr %this1, i32 0, i32 4
  %1 = load ptr, ptr %recv_trailing_metadata_, align 8
  %cmp6 = icmp eq ptr %1, null
  %lnot = xor i1 %cmp6, true
  br i1 %lnot, label %if.then7, label %if.end8

if.then7:                                         ; preds = %do.body
  call void @gpr_assertion_failed(ptr noundef @.str.3, i32 noundef 278, ptr noundef @.str.8) #20
  unreachable

if.end8:                                          ; preds = %do.body
  br label %do.end

do.end:                                           ; preds = %if.end8
  %2 = load ptr, ptr %batch.addr, align 8
  %payload = getelementptr inbounds %struct.grpc_transport_stream_op_batch, ptr %2, i32 0, i32 1
  %3 = load ptr, ptr %payload, align 8
  %recv_trailing_metadata9 = getelementptr inbounds %struct.grpc_transport_stream_op_batch_payload, ptr %3, i32 0, i32 5
  %recv_trailing_metadata10 = getelementptr inbounds %struct.anon.39, ptr %recv_trailing_metadata9, i32 0, i32 0
  %4 = load ptr, ptr %recv_trailing_metadata10, align 8
  %recv_trailing_metadata_11 = getelementptr inbounds %"class.grpc_core::SubchannelCall", ptr %this1, i32 0, i32 4
  store ptr %4, ptr %recv_trailing_metadata_11, align 8
  %5 = load ptr, ptr %batch.addr, align 8
  %payload12 = getelementptr inbounds %struct.grpc_transport_stream_op_batch, ptr %5, i32 0, i32 1
  %6 = load ptr, ptr %payload12, align 8
  %recv_trailing_metadata13 = getelementptr inbounds %struct.grpc_transport_stream_op_batch_payload, ptr %6, i32 0, i32 5
  %recv_trailing_metadata_ready = getelementptr inbounds %struct.anon.39, ptr %recv_trailing_metadata13, i32 0, i32 2
  %7 = load ptr, ptr %recv_trailing_metadata_ready, align 8
  %original_recv_trailing_metadata_ = getelementptr inbounds %"class.grpc_core::SubchannelCall", ptr %this1, i32 0, i32 3
  store ptr %7, ptr %original_recv_trailing_metadata_, align 8
  %recv_trailing_metadata_ready_14 = getelementptr inbounds %"class.grpc_core::SubchannelCall", ptr %this1, i32 0, i32 2
  %8 = load ptr, ptr %batch.addr, align 8
  %payload15 = getelementptr inbounds %struct.grpc_transport_stream_op_batch, ptr %8, i32 0, i32 1
  %9 = load ptr, ptr %payload15, align 8
  %recv_trailing_metadata16 = getelementptr inbounds %struct.grpc_transport_stream_op_batch_payload, ptr %9, i32 0, i32 5
  %recv_trailing_metadata_ready17 = getelementptr inbounds %struct.anon.39, ptr %recv_trailing_metadata16, i32 0, i32 2
  store ptr %recv_trailing_metadata_ready_14, ptr %recv_trailing_metadata_ready17, align 8
  br label %return

return:                                           ; preds = %do.end, %if.then3, %if.then
  ret void
}

; Function Attrs: mustprogress uwtable
define void @_ZN9grpc_core14SubchannelCall27StartTransportStreamOpBatchEP30grpc_transport_stream_op_batch(ptr noundef nonnull align 8 dereferenceable(72) %this, ptr noundef %batch) #4 align 2 {
entry:
  %this.addr = alloca ptr, align 8
  %batch.addr = alloca ptr, align 8
  %call_stack = alloca ptr, align 8
  %top_elem = alloca ptr, align 8
  store ptr %this, ptr %this.addr, align 8
  store ptr %batch, ptr %batch.addr, align 8
  %this1 = load ptr, ptr %this.addr, align 8
  %0 = load ptr, ptr %batch.addr, align 8
  call void @_ZN9grpc_core14SubchannelCall34MaybeInterceptRecvTrailingMetadataEP30grpc_transport_stream_op_batch(ptr noundef nonnull align 8 dereferenceable(72) %this1, ptr noundef %0)
  %add.ptr = getelementptr inbounds i8, ptr %this1, i64 80
  store ptr %add.ptr, ptr %call_stack, align 8
  %1 = load ptr, ptr %call_stack, align 8
  %call = call noundef ptr @_Z23grpc_call_stack_elementP15grpc_call_stackm(ptr noundef %1, i64 noundef 0)
  store ptr %call, ptr %top_elem, align 8
  br label %do.body

do.body:                                          ; preds = %entry
  %call2 = call noundef zeroext i1 @_ZN9grpc_core9TraceFlag7enabledEv(ptr noundef nonnull align 8 dereferenceable(17) @grpc_trace_channel)
  br i1 %call2, label %if.then, label %if.end

if.then:                                          ; preds = %do.body
  %2 = load ptr, ptr %top_elem, align 8
  %3 = load ptr, ptr %batch.addr, align 8
  call void @_Z16grpc_call_log_opPKci16gpr_log_severityP17grpc_call_elementP30grpc_transport_stream_op_batch(ptr noundef @.str.3, i32 noundef 213, i32 noundef 1, ptr noundef %2, ptr noundef %3)
  br label %if.end

if.end:                                           ; preds = %if.then, %do.body
  br label %do.end

do.end:                                           ; preds = %if.end
  %4 = load ptr, ptr %top_elem, align 8
  %filter = getelementptr inbounds %struct.grpc_call_element, ptr %4, i32 0, i32 0
  %5 = load ptr, ptr %filter, align 8
  %start_transport_stream_op_batch = getelementptr inbounds %struct.grpc_channel_filter, ptr %5, i32 0, i32 0
  %6 = load ptr, ptr %start_transport_stream_op_batch, align 8
  %7 = load ptr, ptr %top_elem, align 8
  %8 = load ptr, ptr %batch.addr, align 8
  call void %6(ptr noundef %7, ptr noundef %8)
  ret void
}