; Function Attrs: mustprogress uwtable
define void @_ZN9grpc_core14SubchannelCall27StartTransportStreamOpBatchEP30grpc_transport_stream_op_batch(ptr noundef nonnull align 8 dereferenceable(72) %this, ptr noundef %batch) local_unnamed_addr #3 align 2 personality ptr @__gxx_personality_v0 {
entry:
  %recv_trailing_metadata.i = getelementptr inbounds i8, ptr %batch, i64 16
  %bf.load.i = load i8, ptr %recv_trailing_metadata.i, align 8
  %0 = and i8 %bf.load.i, 32
  %bf.cast.not.i = icmp eq i8 %0, 0
  br i1 %bf.cast.not.i, label %_ZN9grpc_core14SubchannelCall34MaybeInterceptRecvTrailingMetadataEP30grpc_transport_stream_op_batch.exit, label %if.end.i

if.end.i:                                         ; preds = %entry
  %1 = load ptr, ptr %this, align 8
  %channelz_subchannel_.i.i = getelementptr inbounds i8, ptr %1, i64 32
  %2 = load ptr, ptr %channelz_subchannel_.i.i, align 8
  %cmp.i = icmp eq ptr %2, null
  br i1 %cmp.i, label %_ZN9grpc_core14SubchannelCall34MaybeInterceptRecvTrailingMetadataEP30grpc_transport_stream_op_batch.exit, label %if.end4.i

if.end4.i:                                        ; preds = %if.end.i
  %cb1.i.i = getelementptr inbounds i8, ptr %this, i64 24
  store ptr @_ZN9grpc_core14SubchannelCall25RecvTrailingMetadataReadyEPvN4absl12lts_202308026StatusE, ptr %cb1.i.i, align 8
  %cb_arg2.i.i = getelementptr inbounds i8, ptr %this, i64 32
  store ptr %this, ptr %cb_arg2.i.i, align 8
  %error_data.i.i = getelementptr inbounds i8, ptr %this, i64 40
  store i64 0, ptr %error_data.i.i, align 8
  %recv_trailing_metadata_.i = getelementptr inbounds i8, ptr %this, i64 56
  %3 = load ptr, ptr %recv_trailing_metadata_.i, align 8
  %cmp6.not.i = icmp eq ptr %3, null
  br i1 %cmp6.not.i, label %do.end.i, label %if.then7.i

if.then7.i:                                       ; preds = %if.end4.i
  tail call void @gpr_assertion_failed(ptr noundef nonnull @.str.3, i32 noundef 278, ptr noundef nonnull @.str.8) #29
  unreachable

do.end.i:                                         ; preds = %if.end4.i
  %recv_trailing_metadata_ready_.i = getelementptr inbounds i8, ptr %this, i64 16
  %payload.i = getelementptr inbounds i8, ptr %batch, i64 8
  %4 = load ptr, ptr %payload.i, align 8
  %recv_trailing_metadata9.i = getelementptr inbounds i8, ptr %4, i64 96
  %5 = load ptr, ptr %recv_trailing_metadata9.i, align 8
  store ptr %5, ptr %recv_trailing_metadata_.i, align 8
  %6 = load ptr, ptr %payload.i, align 8
  %recv_trailing_metadata_ready.i = getelementptr inbounds i8, ptr %6, i64 112
  %7 = load ptr, ptr %recv_trailing_metadata_ready.i, align 8
  %original_recv_trailing_metadata_.i = getelementptr inbounds i8, ptr %this, i64 48
  store ptr %7, ptr %original_recv_trailing_metadata_.i, align 8
  %8 = load ptr, ptr %payload.i, align 8
  %recv_trailing_metadata_ready17.i = getelementptr inbounds i8, ptr %8, i64 112
  store ptr %recv_trailing_metadata_ready_.i, ptr %recv_trailing_metadata_ready17.i, align 8
  br label %_ZN9grpc_core14SubchannelCall34MaybeInterceptRecvTrailingMetadataEP30grpc_transport_stream_op_batch.exit

_ZN9grpc_core14SubchannelCall34MaybeInterceptRecvTrailingMetadataEP30grpc_transport_stream_op_batch.exit: ; preds = %entry, %if.end.i, %do.end.i
  %add.ptr = getelementptr inbounds i8, ptr %this, i64 80
  %call = tail call noundef ptr @_Z23grpc_call_stack_elementP15grpc_call_stackm(ptr noundef nonnull %add.ptr, i64 noundef 0)
  %9 = load atomic i8, ptr getelementptr inbounds (%"class.grpc_core::TraceFlag", ptr @grpc_trace_channel, i64 0, i32 2, i32 0, i32 0) monotonic, align 8
  %10 = and i8 %9, 1
  %tobool.i.i.i.not = icmp eq i8 %10, 0
  br i1 %tobool.i.i.i.not, label %do.end, label %if.then

if.then:                                          ; preds = %_ZN9grpc_core14SubchannelCall34MaybeInterceptRecvTrailingMetadataEP30grpc_transport_stream_op_batch.exit
  tail call void @_Z16grpc_call_log_opPKci16gpr_log_severityP17grpc_call_elementP30grpc_transport_stream_op_batch(ptr noundef nonnull @.str.3, i32 noundef 213, i32 noundef 1, ptr noundef %call, ptr noundef nonnull %batch)
  br label %do.end

do.end:                                           ; preds = %_ZN9grpc_core14SubchannelCall34MaybeInterceptRecvTrailingMetadataEP30grpc_transport_stream_op_batch.exit, %if.then
  %11 = load ptr, ptr %call, align 8
  %12 = load ptr, ptr %11, align 8
  tail call void %12(ptr noundef nonnull %call, ptr noundef nonnull %batch)
  ret void
}